target datalayout = "e-m:e-p270:32:32-p271:32:32-p272:64:64-i64:64-i128:128-f80:128-n8:16:32:64-S128"
target triple = "x86_64-pc-linux-gnu"

%struct.expert_field = type { i32, i32 }
%struct._xmpp_attr_info = type { ptr, ptr, i8, i8, ptr, ptr }
%struct._packet_info = type { ptr, ptr, i32, i32, %struct.nstime_t, %struct.nstime_t, %struct.nstime_t, i8, ptr, ptr, ptr, ptr, %struct._address, %struct._address, %struct._address, %struct._address, %struct._address, %struct._address, i32, ptr, i8, [3 x i8], %struct.anon, i32, i32, i32, i32, ptr, i8, ptr, ptr, i16, i16, i32, i32, i16, i32, i32, ptr, ptr, ptr, i8, i8, i16, i16, i16, i32, i16, i16, ptr, ptr, ptr, ptr, ptr, i32, i32 }
%struct.nstime_t = type { i64, i32 }
%struct._address = type { i32, i32, ptr, ptr }
%struct.anon = type { i8, [3 x i8] }
%struct._xmpp_element_t = type { ptr, ptr, ptr, ptr, ptr, ptr, i32, i32, i8 }
%struct._xmpp_conv_info_t = type { ptr, ptr, ptr, ptr, i32 }

@__const.xmpp_proceed.attrs_info = private unnamed_addr constant [1 x { ptr, ptr, i8, i8, [6 x i8], ptr, ptr }] [{ ptr, ptr, i8, i8, [6 x i8], ptr, ptr } { ptr @.str.5, ptr @hf_xmpp_xmlns, i8 1, i8 1, [6 x i8] zeroinitializer, ptr null, ptr null }], align 16
@.str.114 = private unnamed_addr constant [9 x i8] c"PROCEED \00", align 1
@hf_xmpp_proceed = external global i32, align 4
@ett_xmpp_proceed = external global i32, align 4
@ei_xmpp_starttls_missing = external global %struct.expert_field, align 4
@.str.115 = private unnamed_addr constant [4 x i8] c"tls\00", align 1
@.str.116 = private unnamed_addr constant [5 x i8] c"xmpp\00", align 1
@ei_xmpp_proceed_already_in_frame = external global %struct.expert_field, align 4
@.str.117 = private unnamed_addr constant [32 x i8] c"Already saw PROCEED in frame %u\00", align 1

; Function Attrs: null_pointer_is_valid sspstrong uwtable
define hidden void @xmpp_proceed(ptr noundef %0, ptr noundef %1, ptr noundef %2, ptr noundef %3, ptr noundef %4) #0 {
  %6 = alloca ptr, align 8
  %7 = alloca ptr, align 8
  %8 = alloca ptr, align 8
  %9 = alloca ptr, align 8
  %10 = alloca ptr, align 8
  %11 = alloca ptr, align 8
  %12 = alloca ptr, align 8
  %13 = alloca i32, align 4
  %14 = alloca [1 x %struct._xmpp_attr_info], align 16
  store ptr %0, ptr %6, align 8
  store ptr %1, ptr %7, align 8
  store ptr %2, ptr %8, align 8
  store ptr %3, ptr %9, align 8
  store ptr %4, ptr %10, align 8
  call void @llvm.lifetime.start.p0(i64 8, ptr %11) #6
  call void @llvm.lifetime.start.p0(i64 8, ptr %12) #6
  call void @llvm.lifetime.start.p0(i64 4, ptr %13) #6
  call void @llvm.lifetime.start.p0(i64 40, ptr %14) #6
  call void @llvm.memcpy.p0.p0.i64(ptr align 16 %14, ptr align 16 @__const.xmpp_proceed.attrs_info, i64 40, i1 false)
  %15 = load ptr, ptr %8, align 8
  %16 = getelementptr inbounds nuw %struct._packet_info, ptr %15, i32 0, i32 1
  %17 = load ptr, ptr %16, align 8
  call void @col_set_str(ptr noundef %17, i32 noundef 25, ptr noundef @.str.114)
  %18 = load ptr, ptr %6, align 8
  %19 = load i32, ptr @hf_xmpp_proceed, align 4
  %20 = load ptr, ptr %7, align 8
  %21 = load ptr, ptr %9, align 8
  %22 = getelementptr inbounds nuw %struct._xmpp_element_t, ptr %21, i32 0, i32 6
  %23 = load i32, ptr %22, align 8
  %24 = load ptr, ptr %9, align 8
  %25 = getelementptr inbounds nuw %struct._xmpp_element_t, ptr %24, i32 0, i32 7
  %26 = load i32, ptr %25, align 4
  %27 = call ptr @proto_tree_add_item(ptr noundef %18, i32 noundef %19, ptr noundef %20, i32 noundef %23, i32 noundef %26, i32 noundef 0)
  store ptr %27, ptr %11, align 8
  %28 = load ptr, ptr %11, align 8
  %29 = load i32, ptr @ett_xmpp_proceed, align 4
  %30 = call ptr @proto_item_add_subtree(ptr noundef %28, i32 noundef %29)
  store ptr %30, ptr %12, align 8
  %31 = load ptr, ptr %10, align 8
  %32 = getelementptr inbounds nuw %struct._xmpp_conv_info_t, ptr %31, i32 0, i32 4
  %33 = load i32, ptr %32, align 8
  %34 = icmp ne i32 %33, 0
  br i1 %34, label %39, label %35

35:                                               ; preds = %5
  %36 = load ptr, ptr %8, align 8
  %37 = load ptr, ptr %11, align 8
  %38 = call ptr @expert_add_info(ptr noundef %36, ptr noundef %37, ptr noundef @ei_xmpp_starttls_missing)
  br label %39

39:                                               ; preds = %35, %5
  %40 = call ptr @find_dissector(ptr noundef @.str.115)
  %41 = load ptr, ptr %8, align 8
  %42 = call ptr @find_dissector(ptr noundef @.str.116)
  %43 = call i32 @ssl_starttls_ack(ptr noundef %40, ptr noundef %41, ptr noundef %42)
  store i32 %43, ptr %13, align 4
  %44 = load i32, ptr %13, align 4
  %45 = icmp ugt i32 %44, 0
  br i1 %45, label %46, label %57

46:                                               ; preds = %39
  %47 = load i32, ptr %13, align 4
  %48 = load ptr, ptr %8, align 8
  %49 = getelementptr inbounds nuw %struct._packet_info, ptr %48, i32 0, i32 3
  %50 = load i32, ptr %49, align 4
  %51 = icmp ne i32 %47, %50
  br i1 %51, label %52, label %57

52:                                               ; preds = %46
  %53 = load ptr, ptr %8, align 8
  %54 = load ptr, ptr %11, align 8
  %55 = load i32, ptr %13, align 4
  %56 = call ptr (ptr, ptr, ptr, ptr, ...) @expert_add_info_format(ptr noundef %53, ptr noundef %54, ptr noundef @ei_xmpp_proceed_already_in_frame, ptr noundef @.str.117, i32 noundef %55)
  br label %57

57:                                               ; preds = %52, %46, %39
  %58 = load ptr, ptr %12, align 8
  %59 = load ptr, ptr %9, align 8
  %60 = load ptr, ptr %8, align 8
  %61 = load ptr, ptr %7, align 8
  %62 = getelementptr inbounds [1 x %struct._xmpp_attr_info], ptr %14, i64 0, i64 0
  call void @xmpp_display_attrs(ptr noundef %58, ptr noundef %59, ptr noundef %60, ptr noundef %61, ptr noundef %62, i32 noundef 1)
  %63 = load ptr, ptr %12, align 8
  %64 = load ptr, ptr %9, align 8
  %65 = load ptr, ptr %8, align 8
  %66 = load ptr, ptr %7, align 8
  call void @xmpp_display_elems(ptr noundef %63, ptr noundef %64, ptr noundef %65, ptr noundef %66, ptr noundef null, i32 noundef 0)
  call void @llvm.lifetime.end.p0(i64 40, ptr %14) #6
  call void @llvm.lifetime.end.p0(i64 4, ptr %13) #6
  call void @llvm.lifetime.end.p0(i64 8, ptr %12) #6
  call void @llvm.lifetime.end.p0(i64 8, ptr %11) #6
  ret void
}