; Function Attrs: null_pointer_is_valid sspstrong uwtable
define hidden void @xmpp_proceed(ptr noundef %0, ptr noundef %1, ptr noundef %2, ptr noundef %3, ptr noundef readonly captures(none) %4) local_unnamed_addr #0 {
  %6 = alloca [1 x %struct._xmpp_attr_info], align 16
  call void @llvm.lifetime.start.p0(i64 40, ptr nonnull %6) #5
  call void @llvm.memcpy.p0.p0.i64(ptr noundef nonnull align 16 dereferenceable(40) %6, ptr noundef nonnull align 16 dereferenceable(40) @__const.xmpp_features_mechanisms.attrs_info, i64 40, i1 false)
  %7 = getelementptr inbounds nuw i8, ptr %2, i64 8
  %8 = load ptr, ptr %7, align 8
  tail call void @col_set_str(ptr noundef %8, i32 noundef 25, ptr noundef nonnull @.str.114)
  %9 = load i32, ptr @hf_xmpp_proceed, align 4
  %10 = getelementptr inbounds nuw i8, ptr %3, i64 48
  %11 = load i32, ptr %10, align 8
  %12 = getelementptr inbounds nuw i8, ptr %3, i64 52
  %13 = load i32, ptr %12, align 4
  %14 = tail call ptr @proto_tree_add_item(ptr noundef %0, i32 noundef %9, ptr noundef %1, i32 noundef %11, i32 noundef %13, i32 noundef 0)
  %15 = load i32, ptr @ett_xmpp_proceed, align 4
  %16 = tail call ptr @proto_item_add_subtree(ptr noundef %14, i32 noundef %15)
  %17 = getelementptr inbounds nuw i8, ptr %4, i64 32
  %18 = load i32, ptr %17, align 8
  %.not = icmp eq i32 %18, 0
  br i1 %.not, label %19, label %21

19:                                               ; preds = %5
  %20 = tail call ptr @expert_add_info(ptr noundef %2, ptr noundef %14, ptr noundef nonnull @ei_xmpp_starttls_missing)
  br label %21

21:                                               ; preds = %19, %5
  %22 = tail call ptr @find_dissector(ptr noundef nonnull @.str.115)
  %23 = tail call ptr @find_dissector(ptr noundef nonnull @.str.116)
  %24 = tail call i32 @ssl_starttls_ack(ptr noundef %22, ptr noundef %2, ptr noundef %23)
  %.not23 = icmp eq i32 %24, 0
  br i1 %.not23, label %30, label %25

25:                                               ; preds = %21
  %26 = getelementptr inbounds nuw i8, ptr %2, i64 20
  %27 = load i32, ptr %26, align 4
  %.not24 = icmp eq i32 %24, %27
  br i1 %.not24, label %30, label %28

28:                                               ; preds = %25
  %29 = tail call ptr (ptr, ptr, ptr, ptr, ...) @expert_add_info_format(ptr noundef %2, ptr noundef %14, ptr noundef nonnull @ei_xmpp_proceed_already_in_frame, ptr noundef nonnull @.str.117, i32 noundef %24)
  br label %30

30:                                               ; preds = %28, %25, %21
  call void @xmpp_display_attrs(ptr noundef %16, ptr noundef %3, ptr noundef %2, ptr noundef %1, ptr noundef nonnull %6, i32 noundef 1)
  call void @xmpp_display_elems(ptr noundef %16, ptr noundef %3, ptr noundef %2, ptr noundef %1, ptr noundef null, i32 noundef 0)
  call void @llvm.lifetime.end.p0(i64 40, ptr nonnull %6) #5
  ret void
}